target datalayout = "e-m:e-p270:32:32-p271:32:32-p272:64:64-i64:64-i128:128-f80:128-n8:16:32:64-S128"
target triple = "x86_64-pc-linux-gnu"

%struct.strvec = type { ptr, i64, i64 }
%struct.ref_exclusions = type { %struct.string_list, %struct.strvec, i8 }
%struct.string_list = type { ptr, i64, i64, i8, ptr }
%struct.exclude_hidden_refs_cb = type { ptr, ptr }

; Function Attrs: nounwind uwtable
define internal i32 @hide_refs_config(ptr noundef %0, ptr noundef %1, ptr noundef %2, ptr noundef %3) #0 {
  %5 = alloca ptr, align 8
  %6 = alloca ptr, align 8
  %7 = alloca ptr, align 8
  %8 = alloca ptr, align 8
  %9 = alloca ptr, align 8
  store ptr %0, ptr %5, align 8, !tbaa !39
  store ptr %1, ptr %6, align 8, !tbaa !39
  store ptr %2, ptr %7, align 8, !tbaa !155
  store ptr %3, ptr %8, align 8, !tbaa !21
  call void @llvm.lifetime.start.p0(i64 8, ptr %9) #12
  %10 = load ptr, ptr %8, align 8, !tbaa !21
  store ptr %10, ptr %9, align 8, !tbaa !157
  %11 = load ptr, ptr %9, align 8, !tbaa !157
  %12 = getelementptr inbounds nuw %struct.exclude_hidden_refs_cb, ptr %11, i32 0, i32 0
  %13 = load ptr, ptr %12, align 8, !tbaa !152
  %14 = getelementptr inbounds nuw %struct.ref_exclusions, ptr %13, i32 0, i32 2
  store i8 1, ptr %14, align 8, !tbaa !151
  %15 = load ptr, ptr %5, align 8, !tbaa !39
  %16 = load ptr, ptr %6, align 8, !tbaa !39
  %17 = load ptr, ptr %9, align 8, !tbaa !157
  %18 = getelementptr inbounds nuw %struct.exclude_hidden_refs_cb, ptr %17, i32 0, i32 1
  %19 = load ptr, ptr %18, align 8, !tbaa !154
  %20 = load ptr, ptr %9, align 8, !tbaa !157
  %21 = getelementptr inbounds nuw %struct.exclude_hidden_refs_cb, ptr %20, i32 0, i32 0
  %22 = load ptr, ptr %21, align 8, !tbaa !152
  %23 = getelementptr inbounds nuw %struct.ref_exclusions, ptr %22, i32 0, i32 1
  %24 = call i32 @parse_hide_refs_config(ptr noundef %15, ptr noundef %16, ptr noundef %19, ptr noundef %23)
  call void @llvm.lifetime.end.p0(i64 8, ptr %9) #12
  ret i32 %24
}