; Function Attrs: nounwind uwtable
define internal i32 @hide_refs_config(ptr noundef %0, ptr noundef %1, ptr readnone captures(none) %2, ptr noundef readonly captures(none) %3) #2 {
  %5 = load ptr, ptr %3, align 8, !tbaa !119
  %6 = getelementptr inbounds nuw i8, ptr %5, i64 64
  store i8 1, ptr %6, align 8, !tbaa !118
  %7 = getelementptr inbounds nuw i8, ptr %3, i64 8
  %8 = load ptr, ptr %7, align 8, !tbaa !122
  %9 = getelementptr inbounds nuw i8, ptr %5, i64 40
  %10 = tail call i32 @parse_hide_refs_config(ptr noundef %0, ptr noundef %1, ptr noundef %8, ptr noundef nonnull %9) #26
  ret i32 %10
}